Certificate:
    Data:
        Version: 3 (0x2)
        Serial Number: 3707 (0xe7b)
    Signature Algorithm: sha1WithRSAEncryption
        Issuer: C=JP, ST=Tokyo, L=Chuo-ku, O=Frank4DD, OU=WebCert Support, CN=Frank4DD Web CA/emailAddress=support@frank4dd.com
        Validity
            Not Before: Aug  8 15:10:06 2014 GMT
            Not After : Aug  7 15:10:06 2017 GMT
        Subject: C=US, ST=TX, L=AUSTIN, O=Afftest, OU=Dev/emailAddress=jhoward@affinegy.com, CN=aff_ajtest
        Subject Public Key Info:
            Public Key Algorithm: rsaEncryption
                Public-Key: (1024 bit)
                Modulus:
                    00:c4:61:ce:59:72:47:26:ff:cf:d2:93:fc:e2:dd:
                    45:b9:16:ab:ce:b1:41:27:0c:94:da:2c:22:ee:1d:
                    81:45:72:3b:7f:3f:98:47:ca:28:4b:36:8b:34:98:
                    a7:75:be:3a:54:a8:0c:c7:20:22:1d:52:f9:52:ad:
                    23:1e:82:3a:3f:1b:64:f1:0a:64:52:b1:a0:af:38:
                    72:35:36:bb:e7:02:0d:0d:3e:17:18:c9:e4:55:1b:
                    8b:d5:6a:6f:cd:fe:3d:48:f4:8a:5c:34:fd:5b:0f:
                    8e:34:57:30:23:4e:81:2a:cd:10:e7:39:3a:77:85:
                    0f:b0:61:6f:f0:e7:fd:df:a9
                Exponent: 65537 (0x10001)
        X509v3 extensions:
            X509v3 Subject Alternative Name: 
                DNS:127.0.0.1, DNS:10.1.1.222
            X509v3 Basic Constraints: critical
                CA:FALSE
            X509v3 Key Usage: 
                Digital Signature
            X509v3 Subject Key Identifier: 
                8C:8C:F1:6C:3E:17:FF:8E:E0:3E:C8:36:03:6C:59:1C:B7:93:CB:4C
            X509v3 Authority Key Identifier: 
                keyid:62:F3:7B:ED:06:D4:B1:D5:9C:7F:48:E5:EF:C5:C9:15:61:FD:D9:11
                DirName:/C=JP/ST=Tokyo/L=Chuo-ku/O=Frank4DD/OU=WebCert Support/CN=Frank4DD Web CA/emailAddress=support@frank4dd.com
                serial:C6:C7:04:09:BC:22:5B:A0

    Signature Algorithm: sha1WithRSAEncryption
         a5:5f:ff:be:93:94:16:25:2d:fa:9c:84:a9:a6:84:97:6a:7d:
         25:1e:5f:52:81:80:c0:67:27:ef:7f:24:f4:d9:98:2a:bf:60:
         5b:73:c8:90:af:61:9e:e9:23:bc:de:82:03:c5:98:89:61:f4:
         fa:21:82:e6:17:38:50:82:28:d3:59:c2:f8:66:2c:5c:f8:b9:
         28:e8:56:d0:80:cf:71:89:a3:f9:06:4a:8f:85:53:43:a8:ab:
         20:15:d9:94:ba:61:e2:31:f3:0a:d3:79:da:02:65:fb:0b:e2:
         bd:0a:1f:cb:56:d2:c4:a3:a3:85:72:5c:40:28:b5:b2:f5:47:
         0a:d4
-----BEGIN CERTIFICATE-----
MIIDzjCCAzegAwIBAgICDnswDQYJKoZIhvcNAQEFBQAwgZsxCzAJBgNVBAYTAkpQ
MQ4wDAYDVQQIEwVUb2t5bzEQMA4GA1UEBxMHQ2h1by1rdTERMA8GA1UEChMIRnJh
bms0REQxGDAWBgNVBAsTD1dlYkNlcnQgU3VwcG9ydDEYMBYGA1UEAxMPRnJhbms0
REQgV2ViIENBMSMwIQYJKoZIhvcNAQkBFhRzdXBwb3J0QGZyYW5rNGRkLmNvbTAe
Fw0xNDA4MDgxNTEwMDZaFw0xNzA4MDcxNTEwMDZaMIGFMQswCQYDVQQGEwJVUzEL
MAkGA1UECAwCVFgxDzANBgNVBAcMBkFVU1RJTjEQMA4GA1UECgwHQWZmdGVzdDEM
MAoGA1UECwwDRGV2MSMwIQYJKoZIhvcNAQkBFhRqaG93YXJkQGFmZmluZWd5LmNv
bTETMBEGA1UEAwwKYWZmX2FqdGVzdDCBnzANBgkqhkiG9w0BAQEFAAOBjQAwgYkC
gYEAxGHOWXJHJv/P0pP84t1FuRarzrFBJwyU2iwi7h2BRXI7fz+YR8ooSzaLNJin
db46VKgMxyAiHVL5Uq0jHoI6Pxtk8QpkUrGgrzhyNTa75wINDT4XGMnkVRuL1Wpv
zf49SPSKXDT9Ww+ONFcwI06BKs0Q5zk6d4UPsGFv8Of936kCAwEAAaOCATMwggEv
MCAGA1UdEQQZMBeCCTEyNy4wLjAuMYIKMTAuMS4xLjIyMjAMBgNVHRMBAf8EAjAA
MAsGA1UdDwQEAwIHgDAdBgNVHQ4EFgQUjIzxbD4X/47gPsg2A2xZHLeTy0wwgdAG
A1UdIwSByDCBxYAUYvN77QbUsdWcf0jl78XJFWH92RGhgaGkgZ4wgZsxCzAJBgNV
BAYTAkpQMQ4wDAYDVQQIEwVUb2t5bzEQMA4GA1UEBxMHQ2h1by1rdTERMA8GA1UE
ChMIRnJhbms0REQxGDAWBgNVBAsTD1dlYkNlcnQgU3VwcG9ydDEYMBYGA1UEAxMP
RnJhbms0REQgV2ViIENBMSMwIQYJKoZIhvcNAQkBFhRzdXBwb3J0QGZyYW5rNGRk
LmNvbYIJAMbHBAm8IlugMA0GCSqGSIb3DQEBBQUAA4GBAKVf/76TlBYlLfqchKmm
hJdqfSUeX1KBgMBnJ+9/JPTZmCq/YFtzyJCvYZ7pI7zeggPFmIlh9PohguYXOFCC
KNNZwvhmLFz4uSjoVtCAz3GJo/kGSo+FU0OoqyAV2ZS6YeIx8wrTedoCZfsL4r0K
H8tW0sSjo4VyXEAotbL1RwrU
-----END CERTIFICATE-----
